Certificate:
    Data:
        Version: 3 (0x2)
        Serial Number: 268435684 (0x100000e4)
        Signature Algorithm: sha256WithRSAEncryption
        Issuer: C=DE, ST=Hessen, O=privacyidea, CN=CA001
        Validity
            Not Before: Dec  2 22:13:32 2022 GMT
            Not After : Dec  2 22:13:32 2023 GMT
        Subject: C=DE, ST=Hessen, O=privacyidea, CN=requester.localdomain
        Subject Public Key Info:
            Public Key Algorithm: rsaEncryption
                RSA Public-Key: (2048 bit)
                Modulus:
                    00:cd:be:14:4f:fa:ce:01:3f:42:22:1b:1d:9c:af:
                    dd:92:d2:7f:db:6c:b7:3e:39:43:43:6b:13:03:f1:
                    05:f4:07:74:bc:76:69:28:0b:af:19:8e:d7:fc:e3:
                    cd:c6:58:f2:ca:7f:08:6d:53:fc:07:02:44:24:c6:
                    b4:34:4c:8c:04:fe:33:0e:40:e2:20:ba:02:73:5a:
                    f7:f5:4f:63:6e:cc:c6:b6:df:54:1d:37:39:7d:51:
                    36:26:5f:bd:dc:3f:a8:8b:6b:a2:ae:b6:9d:d6:21:
                    e7:df:41:b8:7a:28:2a:68:48:ca:a8:2d:ed:e1:e9:
                    46:5e:5a:72:6d:b4:84:38:87:91:fd:94:11:0b:28:
                    84:c6:c2:2f:2a:fb:01:f9:36:7a:09:75:d1:33:88:
                    3c:73:41:5b:c8:bf:94:89:70:a1:f0:c0:b9:2e:50:
                    53:1e:b1:17:64:69:f4:2d:81:e0:a9:0d:0e:32:e9:
                    ba:55:8a:85:f1:1b:6f:49:79:b4:7f:88:c3:0d:3e:
                    54:88:9b:3d:1f:38:8c:04:f3:ee:6a:63:2b:f5:c6:
                    db:b4:83:aa:c4:78:41:3a:7d:4b:e1:c8:3e:71:ca:
                    1b:61:59:ea:c6:c4:ca:32:5e:c9:e9:bf:12:29:e6:
                    c6:c3:63:fe:a0:55:da:7a:f1:60:98:4d:26:ed:fa:
                    70:2d
                Exponent: 65537 (0x10001)
        X509v3 extensions:
            X509v3 Key Usage: 
                Digital Signature, Key Encipherment
            X509v3 Basic Constraints: 
                CA:FALSE
            Netscape Cert Type: 
                SSL Server
            Netscape Comment: 
                OpenSSL Generated Server Certificate
            X509v3 Subject Key Identifier: 
                53:3F:ED:5D:09:07:B3:65:7B:AB:45:C9:24:5B:09:77:80:0A:96:ED
            X509v3 Authority Key Identifier: 
                keyid:F4:A7:C0:CC:91:46:AF:64:F3:91:F2:27:F8:C8:B2:6F:8A:87:32:73
                DirName:/C=DE/ST=Hessen/O=privacyidea/CN=CA001
                serial:FB:C8:EB:AC:83:CD:12:07

            X509v3 Extended Key Usage: 
                TLS Web Server Authentication
    Signature Algorithm: sha256WithRSAEncryption
         00:68:28:dc:35:4d:ca:9f:bd:07:93:b2:86:5a:3a:a7:f5:37:
         f0:0c:00:23:22:27:d2:c0:09:d5:04:4d:d1:cc:0d:6e:77:db:
         36:5b:02:34:34:f7:0c:27:4a:60:e3:e3:50:38:9d:e7:14:6f:
         47:72:eb:6a:a1:f7:85:6a:89:de:d1:0b:03:ba:ca:75:e6:16:
         9f:1a:76:90:10:4e:2f:4e:be:2b:53:b8:1a:bb:12:34:ae:96:
         24:56:35:a7:84:96:21:c6:51:66:d7:8c:36:a1:5e:d3:84:e2:
         8c:d7:74:10:40:49:b1:5d:4c:53:23:c4:36:84:d5:f7:29:cd:
         60:26:ae:64:a1:c7:52:c2:1b:45:e7:9e:64:dc:c3:f7:7e:90:
         94:95:5b:36:72:dc:28:eb:a1:be:cb:40:2e:11:c2:a2:7b:3a:
         ff:60:7b:41:e0:ce:2a:d7:fe:b0:c4:97:59:9f:1b:8d:24:f7:
         06:7c:fd:33:cc:90:f2:d3:eb:4f:ac:4f:91:09:f1:9e:2a:0a:
         6a:26:7e:ae:1c:cf:0e:3e:95:fe:9e:14:96:38:b1:db:51:b3:
         f0:5d:d9:c6:37:c8:57:93:c2:74:22:3f:33:07:6a:5e:76:af:
         fd:da:3a:b3:d5:35:df:05:d2:ea:75:cb:5b:4b:a1:ec:b5:bf:
         57:f0:db:33
-----BEGIN CERTIFICATE-----
MIIEJjCCAw6gAwIBAgIEEAAA5DANBgkqhkiG9w0BAQsFADBEMQswCQYDVQQGEwJE
RTEPMA0GA1UECAwGSGVzc2VuMRQwEgYDVQQKDAtwcml2YWN5aWRlYTEOMAwGA1UE
AwwFQ0EwMDEwHhcNMjIxMjAyMjIxMzMyWhcNMjMxMjAyMjIxMzMyWjBUMQswCQYD
VQQGEwJERTEPMA0GA1UECAwGSGVzc2VuMRQwEgYDVQQKDAtwcml2YWN5aWRlYTEe
MBwGA1UEAwwVcmVxdWVzdGVyLmxvY2FsZG9tYWluMIIBIjANBgkqhkiG9w0BAQEF
AAOCAQ8AMIIBCgKCAQEAzb4UT/rOAT9CIhsdnK/dktJ/22y3PjlDQ2sTA/EF9Ad0
vHZpKAuvGY7X/OPNxljyyn8IbVP8BwJEJMa0NEyMBP4zDkDiILoCc1r39U9jbszG
tt9UHTc5fVE2Jl+93D+oi2uirrad1iHn30G4eigqaEjKqC3t4elGXlpybbSEOIeR
/ZQRCyiExsIvKvsB+TZ6CXXRM4g8c0FbyL+UiXCh8MC5LlBTHrEXZGn0LYHgqQ0O
Mum6VYqF8RtvSXm0f4jDDT5UiJs9HziMBPPuamMr9cbbtIOqxHhBOn1L4cg+ccob
YVnqxsTKMl7J6b8SKebGw2P+oFXaevFgmE0m7fpwLQIDAQABo4IBDjCCAQowCwYD
VR0PBAQDAgWgMAkGA1UdEwQCMAAwEQYJYIZIAYb4QgEBBAQDAgZAMDMGCWCGSAGG
+EIBDQQmFiRPcGVuU1NMIEdlbmVyYXRlZCBTZXJ2ZXIgQ2VydGlmaWNhdGUwHQYD
VR0OBBYEFFM/7V0JB7Nle6tFySRbCXeACpbtMHQGA1UdIwRtMGuAFPSnwMyRRq9k
85HyJ/jIsm+KhzJzoUikRjBEMQswCQYDVQQGEwJERTEPMA0GA1UECAwGSGVzc2Vu
MRQwEgYDVQQKDAtwcml2YWN5aWRlYTEOMAwGA1UEAwwFQ0EwMDGCCQD7yOusg80S
BzATBgNVHSUEDDAKBggrBgEFBQcDATANBgkqhkiG9w0BAQsFAAOCAQEAAGgo3DVN
yp+9B5Oyhlo6p/U38AwAIyIn0sAJ1QRN0cwNbnfbNlsCNDT3DCdKYOPjUDid5xRv
R3LraqH3hWqJ3tELA7rKdeYWnxp2kBBOL06+K1O4GrsSNK6WJFY1p4SWIcZRZteM
NqFe04TijNd0EEBJsV1MUyPENoTV9ynNYCauZKHHUsIbReeeZNzD936QlJVbNnLc
KOuhvstALhHCons6/2B7QeDOKtf+sMSXWZ8bjST3Bnz9M8yQ8tPrT6xPkQnxnioK
aiZ+rhzPDj6V/p4Uljix21Gz8F3ZxjfIV5PCdCI/MwdqXnav/do6s9U13wXS6nXL
W0uh7LW/V/DbMw==
-----END CERTIFICATE-----
