Certificate:
    Data:
        Version: 3 (0x2)
        Serial Number: 268435682 (0x100000e2)
        Signature Algorithm: sha256WithRSAEncryption
        Issuer: C=DE, ST=Hessen, O=privacyidea, CN=CA001
        Validity
            Not Before: Dec  2 22:01:53 2022 GMT
            Not After : Dec  2 22:01:53 2023 GMT
        Subject: CN=selfservice,CN=user,O=realm1/emailAddress=meine
        Subject Public Key Info:
            Public Key Algorithm: rsaEncryption
                RSA Public-Key: (2048 bit)
                Modulus:
                    00:cf:3c:d4:33:0e:12:c4:e6:da:cd:b6:56:a1:1c:
                    26:bb:26:1c:8a:4a:73:a8:58:8a:b6:1e:b3:8b:99:
                    d2:1d:07:c2:92:89:79:c0:69:d8:c8:df:28:61:98:
                    1e:b3:fe:ae:2b:bd:78:a9:f7:6e:47:dc:a3:a0:16:
                    8c:85:02:c1:4e:92:fd:72:6e:f0:c8:03:29:9b:b8:
                    00:6e:c0:83:95:c8:34:20:36:9c:b3:e5:e4:e6:76:
                    73:a3:1a:ad:40:96:e0:53:54:00:ec:76:79:9a:c6:
                    0d:7e:b6:bd:29:ec:83:f3:cb:89:a4:cb:6c:00:ba:
                    0c:c5:78:0f:ff:69:b8:94:f4:04:70:43:3f:d8:9e:
                    d7:a7:fb:5d:ce:75:8e:da:e7:c4:07:b1:9d:de:6f:
                    88:4b:b6:4d:9a:cf:f9:bc:fa:9f:cd:32:6d:f6:3a:
                    0b:0d:23:42:78:ec:97:42:bf:0e:4d:60:56:e1:d3:
                    02:f2:19:cb:84:57:90:e5:70:a1:a2:83:35:86:e2:
                    da:86:9f:f9:8a:c4:79:b3:52:28:da:cb:bb:34:ca:
                    d3:da:91:4a:cf:8d:76:a2:b2:6b:9b:f9:96:fd:09:
                    2a:da:11:23:4d:f0:cb:d6:b2:b1:0e:12:6c:9a:19:
                    65:98:87:ca:e4:ee:24:ce:44:ac:90:8f:9d:1b:c5:
                    2a:9d
                Exponent: 65537 (0x10001)
        X509v3 extensions:
            X509v3 Key Usage: 
                Digital Signature, Key Encipherment
            X509v3 Basic Constraints: 
                CA:FALSE
            Netscape Cert Type: 
                SSL Server
            Netscape Comment: 
                OpenSSL Generated Server Certificate
            X509v3 Subject Key Identifier: 
                4D:07:90:AD:FF:1D:0D:E7:1A:DD:D6:2E:FA:BA:34:CB:AA:1F:24:C6
            X509v3 Authority Key Identifier: 
                keyid:F4:A7:C0:CC:91:46:AF:64:F3:91:F2:27:F8:C8:B2:6F:8A:87:32:73
                DirName:/C=DE/ST=Hessen/O=privacyidea/CN=CA001
                serial:FB:C8:EB:AC:83:CD:12:07

            X509v3 Extended Key Usage: 
                TLS Web Server Authentication
    Signature Algorithm: sha256WithRSAEncryption
         b6:2a:b2:d9:9b:12:63:1d:ac:5b:41:07:e7:db:7b:52:a2:86:
         3b:f3:b7:bb:04:02:b3:47:9d:6d:4c:cc:0c:2f:90:07:2c:ec:
         aa:0b:c6:2c:f8:cd:2b:ca:5d:62:23:f1:4f:51:bd:a8:57:ec:
         24:15:47:3c:89:8d:80:89:d8:77:06:e5:05:f4:83:3f:25:16:
         c1:db:de:fb:33:fb:b5:0e:10:69:0e:17:4d:65:e9:41:c4:7d:
         77:4f:55:f0:f1:d6:86:5f:64:ca:e6:66:50:28:91:71:92:89:
         50:4f:62:42:41:a5:6d:44:72:23:d6:be:17:c2:5a:29:cd:76:
         2b:d2:95:86:40:c8:b9:2f:f1:88:19:e2:be:60:5f:c5:b7:d0:
         40:5d:5b:e6:1a:fa:bf:fc:e4:22:63:c1:dd:a5:8d:77:95:88:
         1e:28:ef:81:42:cf:2e:8f:2d:7b:bb:94:8b:35:7d:05:2b:10:
         6f:b6:95:62:41:19:d1:81:d8:3e:5f:56:b8:b9:41:c0:da:cf:
         c7:78:36:f5:72:38:77:24:5d:7b:d0:a6:55:00:c4:cd:c8:c2:
         d4:dd:0b:c4:97:10:43:ef:49:ea:9b:b8:ec:b3:05:01:b2:5f:
         07:4f:ee:b1:f7:3d:f7:1f:f4:9b:28:51:be:3f:ff:21:4c:9c:
         55:23:b4:c4
-----BEGIN CERTIFICATE-----
MIIEDzCCAvegAwIBAgIEEAAA4jANBgkqhkiG9w0BAQsFADBEMQswCQYDVQQGEwJE
RTEPMA0GA1UECAwGSGVzc2VuMRQwEgYDVQQKDAtwcml2YWN5aWRlYTEOMAwGA1UE
AwwFQ0EwMDEwHhcNMjIxMjAyMjIwMTUzWhcNMjMxMjAyMjIwMTUzWjA9MSUwIwYD
VQQDDBxzZWxmc2VydmljZSxDTj11c2VyLE89cmVhbG0xMRQwEgYJKoZIhvcNAQkB
FgVtZWluZTCCASIwDQYJKoZIhvcNAQEBBQADggEPADCCAQoCggEBAM881DMOEsTm
2s22VqEcJrsmHIpKc6hYirYes4uZ0h0HwpKJecBp2MjfKGGYHrP+riu9eKn3bkfc
o6AWjIUCwU6S/XJu8MgDKZu4AG7Ag5XINCA2nLPl5OZ2c6MarUCW4FNUAOx2eZrG
DX62vSnsg/PLiaTLbAC6DMV4D/9puJT0BHBDP9ie16f7Xc51jtrnxAexnd5viEu2
TZrP+bz6n80ybfY6Cw0jQnjsl0K/Dk1gVuHTAvIZy4RXkOVwoaKDNYbi2oaf+YrE
ebNSKNrLuzTK09qRSs+NdqKya5v5lv0JKtoRI03wy9aysQ4SbJoZZZiHyuTuJM5E
rJCPnRvFKp0CAwEAAaOCAQ4wggEKMAsGA1UdDwQEAwIFoDAJBgNVHRMEAjAAMBEG
CWCGSAGG+EIBAQQEAwIGQDAzBglghkgBhvhCAQ0EJhYkT3BlblNTTCBHZW5lcmF0
ZWQgU2VydmVyIENlcnRpZmljYXRlMB0GA1UdDgQWBBRNB5Ct/x0N5xrd1i76ujTL
qh8kxjB0BgNVHSMEbTBrgBT0p8DMkUavZPOR8if4yLJviocyc6FIpEYwRDELMAkG
A1UEBhMCREUxDzANBgNVBAgMBkhlc3NlbjEUMBIGA1UECgwLcHJpdmFjeWlkZWEx
DjAMBgNVBAMMBUNBMDAxggkA+8jrrIPNEgcwEwYDVR0lBAwwCgYIKwYBBQUHAwEw
DQYJKoZIhvcNAQELBQADggEBALYqstmbEmMdrFtBB+fbe1Kihjvzt7sEArNHnW1M
zAwvkAcs7KoLxiz4zSvKXWIj8U9RvahX7CQVRzyJjYCJ2HcG5QX0gz8lFsHb3vsz
+7UOEGkOF01l6UHEfXdPVfDx1oZfZMrmZlAokXGSiVBPYkJBpW1EciPWvhfCWinN
divSlYZAyLkv8YgZ4r5gX8W30EBdW+Ya+r/85CJjwd2ljXeViB4o74FCzy6PLXu7
lIs1fQUrEG+2lWJBGdGB2D5fVri5QcDaz8d4NvVyOHckXXvQplUAxM3IwtTdC8SX
EEPvSeqbuOyzBQGyXwdP7rH3Pfcf9JsoUb4//yFMnFUjtMQ=
-----END CERTIFICATE-----
