Certificate:
    Data:
        Version: 3 (0x2)
        Serial Number: 268435685 (0x100000e5)
        Signature Algorithm: sha256WithRSAEncryption
        Issuer: C=DE, ST=Hessen, O=privacyidea, CN=CA001
        Validity
            Not Before: Dec  2 22:13:33 2022 GMT
            Not After : Dec  2 22:13:33 2023 GMT
        Subject: CN=cornelius
        Subject Public Key Info:
            Public Key Algorithm: rsaEncryption
                RSA Public-Key: (2048 bit)
                Modulus:
                    00:bf:52:33:bf:ea:e7:d6:6f:56:ad:ba:b4:77:a3:
                    81:f0:b0:c5:07:11:d5:88:0d:50:fa:70:00:c8:1b:
                    2b:c1:ca:19:8f:8e:c9:35:4d:94:fe:72:ab:5a:a8:
                    01:c7:f4:75:67:3e:0b:d4:20:a6:bf:a7:64:df:22:
                    b1:54:d8:6d:3d:f3:5b:c4:ab:8b:4f:80:bc:5f:3f:
                    de:f6:0c:f9:52:12:36:9e:73:7e:20:3c:ff:24:fa:
                    6e:25:dc:07:f5:30:dd:fd:04:84:48:66:c0:13:67:
                    3c:a5:0d:e8:39:13:14:fb:a3:86:20:7d:42:4d:0e:
                    a9:9f:8a:1c:4a:db:0c:1a:21:31:51:a6:40:89:de:
                    c7:e3:d1:ac:25:88:d5:24:8b:bb:c4:1c:0b:06:74:
                    aa:9b:d1:20:63:b7:54:08:9e:cf:2a:9e:23:b4:10:
                    be:45:13:5c:ee:07:f8:20:1e:94:ee:5b:6b:19:40:
                    3e:21:32:71:a2:74:34:5a:90:2e:bd:29:97:e0:b7:
                    cd:ee:56:66:79:9d:9a:2b:a2:0d:ea:6b:4d:71:9f:
                    14:44:8e:38:cf:9f:db:e3:51:ef:50:0e:28:09:1c:
                    e6:2b:3b:61:b2:73:78:d1:79:c0:0c:7c:31:f5:8c:
                    26:54:e4:ea:05:c6:fd:d0:b7:cb:28:a6:e0:07:b9:
                    54:f1
                Exponent: 65537 (0x10001)
        X509v3 extensions:
            X509v3 Key Usage: 
                Digital Signature, Key Encipherment
            X509v3 Basic Constraints: 
                CA:FALSE
            Netscape Cert Type: 
                SSL Server
            Netscape Comment: 
                OpenSSL Generated Server Certificate
            X509v3 Subject Key Identifier: 
                E1:7C:5D:E6:6F:4F:D2:4E:4F:36:CD:76:EE:E8:B5:59:E0:FC:FA:72
            X509v3 Authority Key Identifier: 
                keyid:F4:A7:C0:CC:91:46:AF:64:F3:91:F2:27:F8:C8:B2:6F:8A:87:32:73
                DirName:/C=DE/ST=Hessen/O=privacyidea/CN=CA001
                serial:FB:C8:EB:AC:83:CD:12:07

            X509v3 Extended Key Usage: 
                TLS Web Server Authentication
    Signature Algorithm: sha256WithRSAEncryption
         7f:fa:53:a2:a8:8e:5b:cd:5b:7b:c7:a2:5c:06:1c:63:5e:4b:
         3a:15:d5:ae:19:bc:b1:e2:70:a0:45:33:40:a1:59:6c:07:02:
         ca:d3:d8:d3:5d:ee:54:3e:2d:8c:fd:7d:0a:cb:67:57:4a:ff:
         61:38:32:97:6a:ad:34:c5:d6:1b:06:66:ec:33:84:87:fd:df:
         49:90:db:3f:a0:a9:f1:a7:14:fd:4d:67:14:7d:c8:ab:a9:be:
         a9:0a:3c:a0:9a:17:47:d4:f6:53:97:89:73:d0:e5:5b:68:e8:
         d2:a7:06:8b:09:17:a9:c4:ad:b7:d3:ed:75:b3:c2:f5:d4:ad:
         e5:85:68:41:48:52:98:53:9e:33:85:e1:9b:96:f5:72:fa:31:
         63:c4:55:35:c0:90:08:93:c5:be:98:5b:c0:98:42:55:f3:61:
         0d:e2:18:15:1d:5d:97:a5:a5:8a:c9:95:bd:64:97:a1:f2:32:
         69:0b:8e:48:e4:6d:98:e1:f2:c0:10:6f:4b:a5:41:88:71:6b:
         e8:2b:82:1b:d4:0b:e5:e7:e5:7c:91:ca:fa:6d:aa:e5:f5:bb:
         68:3f:6f:38:0f:b1:30:51:3a:21:8a:df:d8:f5:7f:6d:32:6e:
         7b:8f:6e:32:1e:72:8f:42:66:e6:32:52:94:86:87:9c:8a:70:
         0c:49:3b:52
-----BEGIN CERTIFICATE-----
MIID5jCCAs6gAwIBAgIEEAAA5TANBgkqhkiG9w0BAQsFADBEMQswCQYDVQQGEwJE
RTEPMA0GA1UECAwGSGVzc2VuMRQwEgYDVQQKDAtwcml2YWN5aWRlYTEOMAwGA1UE
AwwFQ0EwMDEwHhcNMjIxMjAyMjIxMzMzWhcNMjMxMjAyMjIxMzMzWjAUMRIwEAYD
VQQDDAljb3JuZWxpdXMwggEiMA0GCSqGSIb3DQEBAQUAA4IBDwAwggEKAoIBAQC/
UjO/6ufWb1aturR3o4HwsMUHEdWIDVD6cADIGyvByhmPjsk1TZT+cqtaqAHH9HVn
PgvUIKa/p2TfIrFU2G0981vEq4tPgLxfP972DPlSEjaec34gPP8k+m4l3Af1MN39
BIRIZsATZzylDeg5ExT7o4YgfUJNDqmfihxK2wwaITFRpkCJ3sfj0awliNUki7vE
HAsGdKqb0SBjt1QIns8qniO0EL5FE1zuB/ggHpTuW2sZQD4hMnGidDRakC69KZfg
t83uVmZ5nZorog3qa01xnxREjjjPn9vjUe9QDigJHOYrO2Gyc3jRecAMfDH1jCZU
5OoFxv3Qt8sopuAHuVTxAgMBAAGjggEOMIIBCjALBgNVHQ8EBAMCBaAwCQYDVR0T
BAIwADARBglghkgBhvhCAQEEBAMCBkAwMwYJYIZIAYb4QgENBCYWJE9wZW5TU0wg
R2VuZXJhdGVkIFNlcnZlciBDZXJ0aWZpY2F0ZTAdBgNVHQ4EFgQU4Xxd5m9P0k5P
Ns127ui1WeD8+nIwdAYDVR0jBG0wa4AU9KfAzJFGr2TzkfIn+Miyb4qHMnOhSKRG
MEQxCzAJBgNVBAYTAkRFMQ8wDQYDVQQIDAZIZXNzZW4xFDASBgNVBAoMC3ByaXZh
Y3lpZGVhMQ4wDAYDVQQDDAVDQTAwMYIJAPvI66yDzRIHMBMGA1UdJQQMMAoGCCsG
AQUFBwMBMA0GCSqGSIb3DQEBCwUAA4IBAQB/+lOiqI5bzVt7x6JcBhxjXks6FdWu
Gbyx4nCgRTNAoVlsBwLK09jTXe5UPi2M/X0Ky2dXSv9hODKXaq00xdYbBmbsM4SH
/d9JkNs/oKnxpxT9TWcUfcirqb6pCjygmhdH1PZTl4lz0OVbaOjSpwaLCRepxK23
0+11s8L11K3lhWhBSFKYU54zheGblvVy+jFjxFU1wJAIk8W+mFvAmEJV82EN4hgV
HV2XpaWKyZW9ZJeh8jJpC45I5G2Y4fLAEG9LpUGIcWvoK4Ib1Avl5+V8kcr6barl
9btoP284D7EwUTohit/Y9X9tMm57j24yHnKPQmbmMlKUhoecinAMSTtS
-----END CERTIFICATE-----
