Certificate:
    Data:
        Version: 3 (0x2)
        Serial Number: 268435679 (0x100000df)
        Signature Algorithm: sha256WithRSAEncryption
        Issuer: C=DE, ST=Hessen, O=privacyidea, CN=CA001
        Validity
            Not Before: Dec  2 22:00:44 2022 GMT
            Not After : Dec  2 22:00:44 2023 GMT
        Subject: CN=cn=cornelius
        Subject Public Key Info:
            Public Key Algorithm: rsaEncryption
                RSA Public-Key: (2048 bit)
                Modulus:
                    00:ce:a4:39:30:25:73:e4:9d:e6:37:3b:85:59:83:
                    ef:a3:6e:f9:83:b9:f7:48:b0:0b:d5:e8:05:40:61:
                    cd:c5:5a:bc:11:2f:5b:4e:d0:4f:b8:d0:e8:7f:05:
                    ab:ad:24:0b:90:d4:3f:60:ec:15:b6:4e:be:8e:d9:
                    26:ab:f2:2f:7f:35:c2:a6:a1:bc:52:3a:d9:88:fb:
                    b3:fa:71:20:b9:51:0e:f8:af:0d:16:be:bd:5d:b9:
                    ab:30:d5:ac:6b:3c:bc:ee:28:4a:4f:6f:d4:09:15:
                    f7:98:af:77:db:36:15:2e:1e:ee:0f:d0:d9:60:ad:
                    db:b9:c4:3f:c6:25:32:f9:e3:e9:50:b8:ec:84:a0:
                    c4:d2:9c:fd:ce:25:80:85:7e:3a:ad:4c:a7:40:1b:
                    0a:58:18:9f:c2:5e:36:e1:d1:44:e9:46:b6:dc:b4:
                    28:a2:ec:ed:02:f7:25:79:e1:86:8e:69:67:52:ee:
                    82:21:b7:84:2d:cc:e7:a8:39:57:7d:a3:1e:e9:50:
                    63:77:29:ab:e4:a5:ff:dc:ee:4c:4b:5e:08:2b:62:
                    08:2d:75:b8:26:6c:93:eb:f5:45:ea:cd:83:58:53:
                    15:46:e6:6b:43:c1:2f:d9:88:4b:3d:d5:fd:0c:ff:
                    51:52:ed:54:fb:27:2d:59:ef:4c:50:ce:71:cd:eb:
                    5a:99
                Exponent: 65537 (0x10001)
        X509v3 extensions:
            X509v3 Key Usage: 
                Digital Signature, Key Encipherment
            X509v3 Basic Constraints: 
                CA:FALSE
            Netscape Cert Type: 
                SSL Server
            Netscape Comment: 
                OpenSSL Generated Server Certificate
            X509v3 Subject Key Identifier: 
                0E:D5:BA:4E:7D:92:57:15:FD:61:4E:34:5B:E9:62:D0:20:1C:7D:08
            X509v3 Authority Key Identifier: 
                keyid:F4:A7:C0:CC:91:46:AF:64:F3:91:F2:27:F8:C8:B2:6F:8A:87:32:73
                DirName:/C=DE/ST=Hessen/O=privacyidea/CN=CA001
                serial:FB:C8:EB:AC:83:CD:12:07

            X509v3 Extended Key Usage: 
                TLS Web Server Authentication
    Signature Algorithm: sha256WithRSAEncryption
         40:a9:23:fc:5a:af:8e:18:ff:ab:01:4b:45:40:9f:cc:05:7f:
         37:79:4d:c1:be:ba:ab:ad:fd:68:9e:4c:34:86:34:b8:77:1c:
         cb:e0:8e:66:0d:77:60:13:9c:09:12:4b:e0:b8:fb:94:a2:c1:
         08:1d:d4:ef:fb:c7:af:e3:3c:4d:d7:96:17:cd:1a:31:a0:72:
         b2:48:12:3f:64:96:22:8b:ce:64:a6:9c:aa:1e:d7:84:84:39:
         ba:a5:fd:cd:2f:eb:9f:34:44:5b:71:40:ab:28:6c:b1:99:39:
         e7:a2:21:62:f1:08:97:9a:51:84:7b:f8:47:d6:81:eb:3a:15:
         3e:3e:7f:d7:51:95:d0:64:65:7a:39:fe:44:3f:3c:e6:b6:2a:
         63:22:af:17:1e:58:67:93:59:5f:14:68:04:cb:1e:9a:b7:35:
         ab:6e:66:ad:9b:9c:80:36:ab:9f:fb:37:f5:9f:42:65:b1:78:
         6d:d9:8a:8a:00:e2:0d:80:d9:ba:a1:27:29:5e:62:eb:d2:73:
         b7:58:88:83:6d:2d:43:ba:85:bc:e9:29:c6:40:7e:84:b1:1f:
         9e:00:a0:ab:85:87:eb:49:30:83:83:ba:51:28:21:f8:12:69:
         1b:85:b7:f7:a0:6f:d9:da:b6:a3:ea:c1:df:78:98:4e:74:20:
         b7:1b:79:03
-----BEGIN CERTIFICATE-----
MIID6TCCAtGgAwIBAgIEEAAA3zANBgkqhkiG9w0BAQsFADBEMQswCQYDVQQGEwJE
RTEPMA0GA1UECAwGSGVzc2VuMRQwEgYDVQQKDAtwcml2YWN5aWRlYTEOMAwGA1UE
AwwFQ0EwMDEwHhcNMjIxMjAyMjIwMDQ0WhcNMjMxMjAyMjIwMDQ0WjAXMRUwEwYD
VQQDDAxjbj1jb3JuZWxpdXMwggEiMA0GCSqGSIb3DQEBAQUAA4IBDwAwggEKAoIB
AQDOpDkwJXPkneY3O4VZg++jbvmDufdIsAvV6AVAYc3FWrwRL1tO0E+40Oh/Baut
JAuQ1D9g7BW2Tr6O2Sar8i9/NcKmobxSOtmI+7P6cSC5UQ74rw0Wvr1duasw1axr
PLzuKEpPb9QJFfeYr3fbNhUuHu4P0Nlgrdu5xD/GJTL54+lQuOyEoMTSnP3OJYCF
fjqtTKdAGwpYGJ/CXjbh0UTpRrbctCii7O0C9yV54YaOaWdS7oIht4QtzOeoOVd9
ox7pUGN3Kavkpf/c7kxLXggrYggtdbgmbJPr9UXqzYNYUxVG5mtDwS/ZiEs91f0M
/1FS7VT7Jy1Z70xQznHN61qZAgMBAAGjggEOMIIBCjALBgNVHQ8EBAMCBaAwCQYD
VR0TBAIwADARBglghkgBhvhCAQEEBAMCBkAwMwYJYIZIAYb4QgENBCYWJE9wZW5T
U0wgR2VuZXJhdGVkIFNlcnZlciBDZXJ0aWZpY2F0ZTAdBgNVHQ4EFgQUDtW6Tn2S
VxX9YU40W+li0CAcfQgwdAYDVR0jBG0wa4AU9KfAzJFGr2TzkfIn+Miyb4qHMnOh
SKRGMEQxCzAJBgNVBAYTAkRFMQ8wDQYDVQQIDAZIZXNzZW4xFDASBgNVBAoMC3By
aXZhY3lpZGVhMQ4wDAYDVQQDDAVDQTAwMYIJAPvI66yDzRIHMBMGA1UdJQQMMAoG
CCsGAQUFBwMBMA0GCSqGSIb3DQEBCwUAA4IBAQBAqSP8Wq+OGP+rAUtFQJ/MBX83
eU3Bvrqrrf1onkw0hjS4dxzL4I5mDXdgE5wJEkvguPuUosEIHdTv+8ev4zxN15YX
zRoxoHKySBI/ZJYii85kppyqHteEhDm6pf3NL+ufNERbcUCrKGyxmTnnoiFi8QiX
mlGEe/hH1oHrOhU+Pn/XUZXQZGV6Of5EPzzmtipjIq8XHlhnk1lfFGgEyx6atzWr
bmatm5yANquf+zf1n0JlsXht2YqKAOINgNm6oScpXmLr0nO3WIiDbS1DuoW86SnG
QH6EsR+eAKCrhYfrSTCDg7pRKCH4Emkbhbf3oG/Z2raj6sHfeJhOdCC3G3kD
-----END CERTIFICATE-----
