Certificate:
    Data:
        Version: 3 (0x2)
        Serial Number: 268435680 (0x100000e0)
        Signature Algorithm: sha256WithRSAEncryption
        Issuer: C=DE, ST=Hessen, O=privacyidea, CN=CA001
        Validity
            Not Before: Dec  2 22:00:45 2022 GMT
            Not After : Dec  2 22:00:45 2023 GMT
        Subject: CN=cornelius
        Subject Public Key Info:
            Public Key Algorithm: rsaEncryption
                RSA Public-Key: (2048 bit)
                Modulus:
                    00:b9:fc:61:2a:a1:a0:a2:c0:f0:0a:e4:7a:cc:3e:
                    b6:12:64:43:c5:67:d6:1f:0d:ec:19:3a:09:59:a1:
                    77:49:af:4b:32:ba:e5:8f:1e:69:b8:b4:7f:09:d9:
                    08:d5:2c:44:68:1b:f5:30:7e:5f:c1:42:a7:81:fc:
                    b0:84:27:54:72:23:60:20:37:33:89:83:96:bc:85:
                    bd:75:3e:0e:f0:4b:a5:ea:ac:ea:a4:bd:29:8d:97:
                    2f:1d:d5:ec:4b:b6:ac:2d:c7:e7:8b:5c:fb:00:b4:
                    d0:f4:1f:67:9c:1c:56:ba:6b:57:0b:11:08:69:c7:
                    9c:aa:09:d1:fa:2e:78:00:42:d8:c1:26:2e:dc:15:
                    d5:1b:a8:ac:01:ae:2a:3f:29:e8:1f:e9:61:da:fd:
                    6e:a9:14:45:80:b1:7c:e5:85:4b:f1:29:d9:25:95:
                    79:48:cf:ef:66:52:dc:a3:24:27:10:d0:0f:d5:d4:
                    dc:52:21:b8:f5:bb:85:6f:2b:2e:44:21:15:be:f2:
                    b7:bd:95:85:79:b5:65:86:f1:d2:cb:2c:f8:72:a2:
                    4c:83:e8:48:44:43:cb:ab:a0:eb:b9:09:a8:84:71:
                    cf:7a:57:9e:4c:b8:ab:0f:22:94:6a:bb:2e:cf:0f:
                    87:bb:7d:1c:e2:d8:95:11:3e:63:67:f0:5f:64:94:
                    26:0d
                Exponent: 65537 (0x10001)
        X509v3 extensions:
            X509v3 Key Usage: 
                Digital Signature, Key Encipherment
            X509v3 Basic Constraints: 
                CA:FALSE
            Netscape Cert Type: 
                SSL Server
            Netscape Comment: 
                OpenSSL Generated Server Certificate
            X509v3 Subject Key Identifier: 
                88:4A:26:D6:FE:67:17:81:29:DE:9B:2E:30:EE:8C:90:D4:39:53:2B
            X509v3 Authority Key Identifier: 
                keyid:F4:A7:C0:CC:91:46:AF:64:F3:91:F2:27:F8:C8:B2:6F:8A:87:32:73
                DirName:/C=DE/ST=Hessen/O=privacyidea/CN=CA001
                serial:FB:C8:EB:AC:83:CD:12:07

            X509v3 Extended Key Usage: 
                TLS Web Server Authentication
    Signature Algorithm: sha256WithRSAEncryption
         15:20:a1:c9:4e:4b:cb:d1:94:49:30:f6:ed:df:e2:5f:7b:2b:
         e1:6a:16:f1:79:85:a7:17:3c:a6:dd:e8:97:a2:de:3f:af:da:
         20:27:e7:73:8c:81:ca:d2:a2:05:c6:78:07:d4:1d:4b:49:df:
         a5:c1:d4:49:71:37:f8:0e:12:f2:87:13:a0:d1:df:49:eb:7d:
         33:56:fe:b4:90:23:f2:7e:17:88:5c:68:1b:82:4c:17:bc:6b:
         a6:bf:61:44:d2:ea:dd:2b:ae:c1:e9:d6:e2:e5:a7:e9:82:e6:
         71:d0:63:7d:e2:14:b5:5b:6a:45:21:d3:c4:5f:ea:6a:f3:93:
         53:d0:d2:cc:e3:3f:d9:9b:d4:6b:ef:ab:3a:9e:5c:34:08:d3:
         88:ac:0d:8f:38:44:43:f1:34:87:db:93:80:8e:5e:e2:be:e7:
         88:7b:e1:50:e6:8e:32:f9:21:d8:65:5e:8b:e7:0d:32:d9:ac:
         6d:78:89:4c:ad:5f:d2:13:bd:60:7b:2a:79:0b:5e:0e:83:b6:
         b9:eb:97:56:ba:7a:74:72:62:7a:62:97:d8:56:9b:1a:2e:6e:
         5a:96:e8:5f:c1:8a:2f:9b:79:03:ca:92:01:5e:b3:ea:52:35:
         63:48:9a:93:b9:52:fb:63:03:a9:67:52:ef:be:52:70:65:43:
         17:65:d8:d2
-----BEGIN CERTIFICATE-----
MIID5jCCAs6gAwIBAgIEEAAA4DANBgkqhkiG9w0BAQsFADBEMQswCQYDVQQGEwJE
RTEPMA0GA1UECAwGSGVzc2VuMRQwEgYDVQQKDAtwcml2YWN5aWRlYTEOMAwGA1UE
AwwFQ0EwMDEwHhcNMjIxMjAyMjIwMDQ1WhcNMjMxMjAyMjIwMDQ1WjAUMRIwEAYD
VQQDDAljb3JuZWxpdXMwggEiMA0GCSqGSIb3DQEBAQUAA4IBDwAwggEKAoIBAQC5
/GEqoaCiwPAK5HrMPrYSZEPFZ9YfDewZOglZoXdJr0syuuWPHmm4tH8J2QjVLERo
G/Uwfl/BQqeB/LCEJ1RyI2AgNzOJg5a8hb11Pg7wS6XqrOqkvSmNly8d1exLtqwt
x+eLXPsAtND0H2ecHFa6a1cLEQhpx5yqCdH6LngAQtjBJi7cFdUbqKwBrio/Kegf
6WHa/W6pFEWAsXzlhUvxKdkllXlIz+9mUtyjJCcQ0A/V1NxSIbj1u4VvKy5EIRW+
8re9lYV5tWWG8dLLLPhyokyD6EhEQ8uroOu5CaiEcc96V55MuKsPIpRquy7PD4e7
fRzi2JURPmNn8F9klCYNAgMBAAGjggEOMIIBCjALBgNVHQ8EBAMCBaAwCQYDVR0T
BAIwADARBglghkgBhvhCAQEEBAMCBkAwMwYJYIZIAYb4QgENBCYWJE9wZW5TU0wg
R2VuZXJhdGVkIFNlcnZlciBDZXJ0aWZpY2F0ZTAdBgNVHQ4EFgQUiEom1v5nF4Ep
3psuMO6MkNQ5UyswdAYDVR0jBG0wa4AU9KfAzJFGr2TzkfIn+Miyb4qHMnOhSKRG
MEQxCzAJBgNVBAYTAkRFMQ8wDQYDVQQIDAZIZXNzZW4xFDASBgNVBAoMC3ByaXZh
Y3lpZGVhMQ4wDAYDVQQDDAVDQTAwMYIJAPvI66yDzRIHMBMGA1UdJQQMMAoGCCsG
AQUFBwMBMA0GCSqGSIb3DQEBCwUAA4IBAQAVIKHJTkvL0ZRJMPbt3+Jfeyvhahbx
eYWnFzym3eiXot4/r9ogJ+dzjIHK0qIFxngH1B1LSd+lwdRJcTf4DhLyhxOg0d9J
630zVv60kCPyfheIXGgbgkwXvGumv2FE0urdK67B6dbi5afpguZx0GN94hS1W2pF
IdPEX+pq85NT0NLM4z/Zm9Rr76s6nlw0CNOIrA2POERD8TSH25OAjl7ivueIe+FQ
5o4y+SHYZV6L5w0y2axteIlMrV/SE71geyp5C14Og7a565dWunp0cmJ6YpfYVpsa
Lm5aluhfwYovm3kDypIBXrPqUjVjSJqTuVL7YwOpZ1LvvlJwZUMXZdjS
-----END CERTIFICATE-----
