Certificate:
    Data:
        Version: 3 (0x2)
        Serial Number: 268435683 (0x100000e3)
        Signature Algorithm: sha256WithRSAEncryption
        Issuer: C=DE, ST=Hessen, O=privacyidea, CN=CA001
        Validity
            Not Before: Dec  2 22:13:05 2022 GMT
            Not After : Dec  2 22:13:05 2023 GMT
        Subject: CN=cn=cornelius
        Subject Public Key Info:
            Public Key Algorithm: rsaEncryption
                RSA Public-Key: (2048 bit)
                Modulus:
                    00:ce:a4:39:30:25:73:e4:9d:e6:37:3b:85:59:83:
                    ef:a3:6e:f9:83:b9:f7:48:b0:0b:d5:e8:05:40:61:
                    cd:c5:5a:bc:11:2f:5b:4e:d0:4f:b8:d0:e8:7f:05:
                    ab:ad:24:0b:90:d4:3f:60:ec:15:b6:4e:be:8e:d9:
                    26:ab:f2:2f:7f:35:c2:a6:a1:bc:52:3a:d9:88:fb:
                    b3:fa:71:20:b9:51:0e:f8:af:0d:16:be:bd:5d:b9:
                    ab:30:d5:ac:6b:3c:bc:ee:28:4a:4f:6f:d4:09:15:
                    f7:98:af:77:db:36:15:2e:1e:ee:0f:d0:d9:60:ad:
                    db:b9:c4:3f:c6:25:32:f9:e3:e9:50:b8:ec:84:a0:
                    c4:d2:9c:fd:ce:25:80:85:7e:3a:ad:4c:a7:40:1b:
                    0a:58:18:9f:c2:5e:36:e1:d1:44:e9:46:b6:dc:b4:
                    28:a2:ec:ed:02:f7:25:79:e1:86:8e:69:67:52:ee:
                    82:21:b7:84:2d:cc:e7:a8:39:57:7d:a3:1e:e9:50:
                    63:77:29:ab:e4:a5:ff:dc:ee:4c:4b:5e:08:2b:62:
                    08:2d:75:b8:26:6c:93:eb:f5:45:ea:cd:83:58:53:
                    15:46:e6:6b:43:c1:2f:d9:88:4b:3d:d5:fd:0c:ff:
                    51:52:ed:54:fb:27:2d:59:ef:4c:50:ce:71:cd:eb:
                    5a:99
                Exponent: 65537 (0x10001)
        X509v3 extensions:
            X509v3 Key Usage: 
                Digital Signature, Key Encipherment
            X509v3 Basic Constraints: 
                CA:FALSE
            Netscape Cert Type: 
                SSL Server
            Netscape Comment: 
                OpenSSL Generated Server Certificate
            X509v3 Subject Key Identifier: 
                0E:D5:BA:4E:7D:92:57:15:FD:61:4E:34:5B:E9:62:D0:20:1C:7D:08
            X509v3 Authority Key Identifier: 
                keyid:F4:A7:C0:CC:91:46:AF:64:F3:91:F2:27:F8:C8:B2:6F:8A:87:32:73
                DirName:/C=DE/ST=Hessen/O=privacyidea/CN=CA001
                serial:FB:C8:EB:AC:83:CD:12:07

            X509v3 Extended Key Usage: 
                TLS Web Server Authentication
    Signature Algorithm: sha256WithRSAEncryption
         08:50:7a:01:e4:e0:96:4d:8a:25:5a:de:4a:6c:16:4c:2f:1c:
         0c:cb:94:3d:59:23:a1:b2:cc:f4:66:82:9e:a7:65:1b:53:c9:
         f6:d6:70:09:a2:5d:ab:61:e9:fa:96:a0:6d:08:ce:17:bd:4b:
         3b:01:dd:4e:91:9e:7b:8a:7f:e0:36:ea:b8:11:f4:b4:7e:2d:
         07:77:0d:4a:9d:c8:c5:a3:54:c8:47:db:fb:27:38:a3:b8:88:
         7e:8d:90:d8:db:b4:a2:4d:0a:5c:08:b6:35:cb:8b:f6:12:cb:
         64:92:01:05:21:71:a9:c1:23:aa:77:5a:f6:3a:67:fc:59:7f:
         3c:f3:ae:b0:99:b9:6a:7b:ea:33:e2:76:9a:45:5f:95:80:9e:
         76:ee:cb:85:93:5f:fa:47:a3:bc:16:41:d9:6b:de:7e:9c:f9:
         c5:ec:bf:11:32:86:1d:30:d7:e3:aa:26:57:4a:ef:4e:b0:77:
         2c:b0:6a:4b:63:17:41:59:f7:91:61:67:3d:ad:b5:35:04:11:
         1d:31:76:a7:fd:1b:35:ca:15:28:d1:79:30:f4:93:9c:fe:6e:
         39:e6:a6:67:c9:46:43:e4:c3:e6:44:9d:c5:dd:e5:bb:17:7d:
         f9:9a:09:d6:22:41:ad:08:5f:b9:69:6b:f1:e3:a4:4c:2c:c9:
         19:7b:bc:d1
-----BEGIN CERTIFICATE-----
MIID6TCCAtGgAwIBAgIEEAAA4zANBgkqhkiG9w0BAQsFADBEMQswCQYDVQQGEwJE
RTEPMA0GA1UECAwGSGVzc2VuMRQwEgYDVQQKDAtwcml2YWN5aWRlYTEOMAwGA1UE
AwwFQ0EwMDEwHhcNMjIxMjAyMjIxMzA1WhcNMjMxMjAyMjIxMzA1WjAXMRUwEwYD
VQQDDAxjbj1jb3JuZWxpdXMwggEiMA0GCSqGSIb3DQEBAQUAA4IBDwAwggEKAoIB
AQDOpDkwJXPkneY3O4VZg++jbvmDufdIsAvV6AVAYc3FWrwRL1tO0E+40Oh/Baut
JAuQ1D9g7BW2Tr6O2Sar8i9/NcKmobxSOtmI+7P6cSC5UQ74rw0Wvr1duasw1axr
PLzuKEpPb9QJFfeYr3fbNhUuHu4P0Nlgrdu5xD/GJTL54+lQuOyEoMTSnP3OJYCF
fjqtTKdAGwpYGJ/CXjbh0UTpRrbctCii7O0C9yV54YaOaWdS7oIht4QtzOeoOVd9
ox7pUGN3Kavkpf/c7kxLXggrYggtdbgmbJPr9UXqzYNYUxVG5mtDwS/ZiEs91f0M
/1FS7VT7Jy1Z70xQznHN61qZAgMBAAGjggEOMIIBCjALBgNVHQ8EBAMCBaAwCQYD
VR0TBAIwADARBglghkgBhvhCAQEEBAMCBkAwMwYJYIZIAYb4QgENBCYWJE9wZW5T
U0wgR2VuZXJhdGVkIFNlcnZlciBDZXJ0aWZpY2F0ZTAdBgNVHQ4EFgQUDtW6Tn2S
VxX9YU40W+li0CAcfQgwdAYDVR0jBG0wa4AU9KfAzJFGr2TzkfIn+Miyb4qHMnOh
SKRGMEQxCzAJBgNVBAYTAkRFMQ8wDQYDVQQIDAZIZXNzZW4xFDASBgNVBAoMC3By
aXZhY3lpZGVhMQ4wDAYDVQQDDAVDQTAwMYIJAPvI66yDzRIHMBMGA1UdJQQMMAoG
CCsGAQUFBwMBMA0GCSqGSIb3DQEBCwUAA4IBAQAIUHoB5OCWTYolWt5KbBZMLxwM
y5Q9WSOhssz0ZoKep2UbU8n21nAJol2rYen6lqBtCM4XvUs7Ad1OkZ57in/gNuq4
EfS0fi0Hdw1KncjFo1TIR9v7JzijuIh+jZDY27SiTQpcCLY1y4v2EstkkgEFIXGp
wSOqd1r2Omf8WX88866wmblqe+oz4naaRV+VgJ527suFk1/6R6O8FkHZa95+nPnF
7L8RMoYdMNfjqiZXSu9OsHcssGpLYxdBWfeRYWc9rbU1BBEdMXan/Rs1yhUo0Xkw
9JOc/m455qZnyUZD5MPmRJ3F3eW7F335mgnWIkGtCF+5aWvx46RMLMkZe7zR
-----END CERTIFICATE-----
