Certificate:
    Data:
        Version: 3 (0x2)
        Serial Number: 268435681 (0x100000e1)
        Signature Algorithm: sha256WithRSAEncryption
        Issuer: C=DE, ST=Hessen, O=privacyidea, CN=CA001
        Validity
            Not Before: Dec  2 22:00:45 2022 GMT
            Not After : Dec  2 22:00:45 2023 GMT
        Subject: OU=realm1, CN=cornelius/emailAddress=user@localhost.localdomain
        Subject Public Key Info:
            Public Key Algorithm: rsaEncryption
                RSA Public-Key: (2048 bit)
                Modulus:
                    00:c9:c1:f7:9a:fe:7b:95:f4:1a:c1:ac:5d:7e:a4:
                    68:10:9d:29:07:87:9a:3e:2b:31:96:29:b5:45:80:
                    82:f1:c2:2f:79:84:65:fd:25:15:f5:56:6d:7e:ca:
                    cb:96:66:01:03:0c:9b:da:b9:f4:ee:da:ec:ee:d9:
                    6c:9c:91:91:ff:f0:04:c4:36:4d:20:5e:c9:88:d1:
                    81:94:30:ad:de:d4:ab:7d:69:49:07:7a:8e:bb:d3:
                    be:e8:5f:f4:23:13:4b:79:2b:1e:60:6a:ef:46:84:
                    31:b5:70:f1:95:89:49:14:90:60:2b:e6:50:f4:30:
                    0a:7a:b7:9b:3c:69:34:da:00:cf:f8:9b:a0:06:9e:
                    e2:bc:b5:f4:6a:14:99:5c:04:0b:03:57:75:66:dc:
                    62:a7:b7:dc:b9:8e:ef:04:ba:8c:86:d5:3a:37:17:
                    7d:46:c5:ff:6f:97:04:0a:88:67:93:a3:db:aa:97:
                    84:68:2a:3b:6c:68:fb:6f:62:e7:df:d6:32:b7:4a:
                    a9:8e:a3:d2:5b:d7:b7:5d:91:1b:13:9c:0e:64:dd:
                    30:0d:d6:7f:20:11:2c:20:f0:0b:f5:94:7a:02:17:
                    f2:b7:85:0c:a4:ed:a9:32:aa:c4:c6:61:31:07:4d:
                    05:ef:c0:15:c9:2d:9e:de:a4:69:db:0d:1e:10:54:
                    9a:c9
                Exponent: 65537 (0x10001)
        X509v3 extensions:
            X509v3 Key Usage: 
                Digital Signature, Key Encipherment
            X509v3 Basic Constraints: 
                CA:FALSE
            Netscape Cert Type: 
                SSL Server
            Netscape Comment: 
                OpenSSL Generated Server Certificate
            X509v3 Subject Key Identifier: 
                4C:2B:86:8A:72:56:85:C5:52:21:B8:BB:ED:ED:60:D8:AD:E8:B9:27
            X509v3 Authority Key Identifier: 
                keyid:F4:A7:C0:CC:91:46:AF:64:F3:91:F2:27:F8:C8:B2:6F:8A:87:32:73
                DirName:/C=DE/ST=Hessen/O=privacyidea/CN=CA001
                serial:FB:C8:EB:AC:83:CD:12:07

            X509v3 Extended Key Usage: 
                TLS Web Server Authentication
    Signature Algorithm: sha256WithRSAEncryption
         35:74:8a:fe:87:e2:32:c5:4a:97:b9:d8:15:c1:51:e2:94:45:
         b6:78:1d:c6:e7:e7:af:4e:b6:a2:88:dc:f1:83:fb:5f:e2:4e:
         33:31:d1:6a:b0:5e:1c:a3:48:b8:ad:bc:b3:6d:f3:b6:ec:45:
         9e:64:b5:9f:ed:dd:eb:33:65:97:1a:1d:e5:dc:9a:dd:1a:74:
         fd:3e:87:9a:15:a9:fc:d2:89:af:6f:3c:cd:5c:df:9e:73:40:
         cd:1a:63:c4:2f:6c:2f:ed:2a:1d:11:6f:7b:1b:36:7d:42:1a:
         57:ef:6f:54:94:07:d8:fe:d4:e7:7a:67:1c:01:f1:b3:01:4d:
         ae:1a:84:68:62:d4:a2:4a:85:02:f1:e7:8e:db:74:4c:2a:68:
         22:0d:86:41:35:8c:cb:da:6b:bc:36:45:b9:63:16:ff:3a:a1:
         13:c6:37:97:a3:4f:1c:e0:be:dc:6e:9c:ce:92:98:e1:0e:66:
         c4:80:84:4b:90:86:74:36:0d:94:e7:d3:d2:c8:ab:29:ce:1c:
         2e:32:93:c6:c4:99:69:d7:c0:ec:d1:37:cf:15:fa:54:72:71:
         94:a9:97:24:19:82:af:4c:e0:f3:4f:30:34:ff:cf:79:eb:13:
         f6:ab:8d:3b:67:bf:16:b9:34:be:02:aa:d3:6b:83:4b:fc:a4:
         03:6f:eb:a9
-----BEGIN CERTIFICATE-----
MIIEIjCCAwqgAwIBAgIEEAAA4TANBgkqhkiG9w0BAQsFADBEMQswCQYDVQQGEwJE
RTEPMA0GA1UECAwGSGVzc2VuMRQwEgYDVQQKDAtwcml2YWN5aWRlYTEOMAwGA1UE
AwwFQ0EwMDEwHhcNMjIxMjAyMjIwMDQ1WhcNMjMxMjAyMjIwMDQ1WjBQMQ8wDQYD
VQQLDAZyZWFsbTExEjAQBgNVBAMMCWNvcm5lbGl1czEpMCcGCSqGSIb3DQEJARYa
dXNlckBsb2NhbGhvc3QubG9jYWxkb21haW4wggEiMA0GCSqGSIb3DQEBAQUAA4IB
DwAwggEKAoIBAQDJwfea/nuV9BrBrF1+pGgQnSkHh5o+KzGWKbVFgILxwi95hGX9
JRX1Vm1+ysuWZgEDDJvaufTu2uzu2WyckZH/8ATENk0gXsmI0YGUMK3e1Kt9aUkH
eo67077oX/QjE0t5Kx5gau9GhDG1cPGViUkUkGAr5lD0MAp6t5s8aTTaAM/4m6AG
nuK8tfRqFJlcBAsDV3Vm3GKnt9y5ju8EuoyG1To3F31Gxf9vlwQKiGeTo9uql4Ro
KjtsaPtvYuff1jK3SqmOo9Jb17ddkRsTnA5k3TAN1n8gESwg8Av1lHoCF/K3hQyk
7akyqsTGYTEHTQXvwBXJLZ7epGnbDR4QVJrJAgMBAAGjggEOMIIBCjALBgNVHQ8E
BAMCBaAwCQYDVR0TBAIwADARBglghkgBhvhCAQEEBAMCBkAwMwYJYIZIAYb4QgEN
BCYWJE9wZW5TU0wgR2VuZXJhdGVkIFNlcnZlciBDZXJ0aWZpY2F0ZTAdBgNVHQ4E
FgQUTCuGinJWhcVSIbi77e1g2K3ouScwdAYDVR0jBG0wa4AU9KfAzJFGr2TzkfIn
+Miyb4qHMnOhSKRGMEQxCzAJBgNVBAYTAkRFMQ8wDQYDVQQIDAZIZXNzZW4xFDAS
BgNVBAoMC3ByaXZhY3lpZGVhMQ4wDAYDVQQDDAVDQTAwMYIJAPvI66yDzRIHMBMG
A1UdJQQMMAoGCCsGAQUFBwMBMA0GCSqGSIb3DQEBCwUAA4IBAQA1dIr+h+IyxUqX
udgVwVHilEW2eB3G5+evTraiiNzxg/tf4k4zMdFqsF4co0i4rbyzbfO27EWeZLWf
7d3rM2WXGh3l3JrdGnT9PoeaFan80omvbzzNXN+ec0DNGmPEL2wv7SodEW97GzZ9
QhpX729UlAfY/tTnemccAfGzAU2uGoRoYtSiSoUC8eeO23RMKmgiDYZBNYzL2mu8
NkW5Yxb/OqETxjeXo08c4L7cbpzOkpjhDmbEgIRLkIZ0Ng2U59PSyKspzhwuMpPG
xJlp18Ds0TfPFfpUcnGUqZckGYKvTODzTzA0/8956xP2q407Z78WuTS+AqrTa4NL
/KQDb+up
-----END CERTIFICATE-----
